; Function Attrs: null_pointer_is_valid sspstrong uwtable
define internal i32 @dissect_acse_AARQ_apdu(i1 noundef zeroext %0, ptr noundef %1, i32 noundef %2, ptr noundef %3, ptr noundef %4, i32 noundef %5) #0 {
  %7 = getelementptr inbounds nuw i8, ptr %3, i64 16
  %8 = load ptr, ptr %7, align 8
  %9 = getelementptr inbounds nuw i8, ptr %8, i64 8
  %10 = load ptr, ptr %9, align 8
  tail call void @col_append_str(ptr noundef %10, i32 noundef 25, ptr noundef nonnull @.str.322)
  %11 = tail call i32 @dissect_ber_tagged_type(i1 noundef zeroext %0, ptr noundef %3, ptr noundef %4, ptr noundef %1, i32 noundef %2, i32 noundef %5, i8 noundef signext 1, i32 noundef 0, i1 noundef zeroext true, ptr noundef nonnull @dissect_acse_AARQ_apdu_U)
  ret i32 %11
}